; Function Attrs: mustprogress uwtable
define internal void @_ZNSt17_Function_handlerIFvN11OpenImageIO6v3_1_03ROIEEZNS1_L10morph_implIftEEbRNS1_8ImageBufERKS5_iiNS1_7MorphOpES2_iEUlS2_E_E9_M_invokeERKSt9_Any_dataOS2_(ptr noundef nonnull readonly align 8 captures(none) dereferenceable(16) %0, ptr noundef nonnull readonly align 4 captures(none) dereferenceable(32) %1) #5 align 2 {
  %3 = alloca %"struct.OpenImageIO::v3_1_0::ROI", align 8
  %.val = load ptr, ptr %0, align 8, !tbaa !211
  call void @llvm.lifetime.start.p0(i64 32, ptr nonnull %3)
  call void @llvm.memcpy.p0.p0.i64(ptr noundef nonnull align 8 dereferenceable(32) %3, ptr noundef nonnull readonly align 4 dereferenceable(32) %1, i64 32, i1 false), !tbaa.struct !14
  tail call fastcc void @_ZZN11OpenImageIO6v3_1_0L10morph_implIftEEbRNS0_8ImageBufERKS2_iiNS0_7MorphOpENS0_3ROIEiENKUlS7_E_clES7_(ptr noundef nonnull readonly align 8 dereferenceable(40) %.val, ptr noundef nonnull byval(%"struct.OpenImageIO::v3_1_0::ROI") align 8 %3)
  call void @llvm.lifetime.end.p0(i64 32, ptr nonnull %3)
  ret void
}